; Function Attrs: nounwind uwtable
define ptr @l___private_Lean_Elab_Binders_0__Lean_Elab_Term_ensureAtomicBinderName(ptr noundef readonly captures(none) %0, ptr noundef %1, ptr noundef %2, ptr noundef %3, ptr noundef %4, ptr noundef %5, ptr noundef %6, ptr noundef %7) local_unnamed_addr #1 {
  %9 = getelementptr inbounds nuw i8, ptr %0, i64 16
  %10 = load ptr, ptr %9, align 8, !tbaa !4
  %11 = tail call ptr @l_Lean_Syntax_getId(ptr noundef %10) #6
  %12 = tail call ptr @lean_erase_macro_scopes(ptr noundef %11) #6
  %13 = tail call zeroext i8 @l_Lean_Name_isAtomic(ptr noundef %12) #6
  %14 = icmp eq i8 %13, 0
  br i1 %14, label %15, label %32

15:                                               ; preds = %8
  %16 = tail call ptr @l_Lean_MessageData_ofName(ptr noundef %12) #6
  %17 = load ptr, ptr @l___private_Lean_Elab_Binders_0__Lean_Elab_Term_ensureAtomicBinderName___closed__2, align 8, !tbaa !4
  tail call void @lean_inc_heartbeat() #6
  %18 = tail call noalias ptr @mi_malloc_small(i64 noundef 24) #6
  %19 = icmp eq ptr %18, null
  br i1 %19, label %20, label %lean_alloc_ctor.exit

20:                                               ; preds = %15
  tail call void @lean_internal_panic_out_of_memory() #7
  unreachable

lean_alloc_ctor.exit:                             ; preds = %15
  %21 = getelementptr inbounds nuw i8, ptr %18, i64 4
  store i32 1, ptr %18, align 4, !tbaa !8
  store i32 117571608, ptr %21, align 4
  %22 = getelementptr inbounds nuw i8, ptr %18, i64 8
  store ptr %17, ptr %22, align 8, !tbaa !4
  %23 = getelementptr inbounds nuw i8, ptr %18, i64 16
  store ptr %16, ptr %23, align 8, !tbaa !4
  %24 = load ptr, ptr @l___private_Lean_Elab_Binders_0__Lean_Elab_Term_ensureAtomicBinderName___closed__4, align 8, !tbaa !4
  tail call void @lean_inc_heartbeat() #6
  %25 = tail call noalias ptr @mi_malloc_small(i64 noundef 24) #6
  %26 = icmp eq ptr %25, null
  br i1 %26, label %27, label %lean_alloc_ctor.exit38

27:                                               ; preds = %lean_alloc_ctor.exit
  tail call void @lean_internal_panic_out_of_memory() #7
  unreachable

lean_alloc_ctor.exit38:                           ; preds = %lean_alloc_ctor.exit
  %28 = getelementptr inbounds nuw i8, ptr %25, i64 4
  store i32 1, ptr %25, align 4, !tbaa !8
  store i32 117571608, ptr %28, align 4
  %29 = getelementptr inbounds nuw i8, ptr %25, i64 8
  store ptr %18, ptr %29, align 8, !tbaa !4
  %30 = getelementptr inbounds nuw i8, ptr %25, i64 16
  store ptr %24, ptr %30, align 8, !tbaa !4
  %31 = tail call ptr @l_Lean_throwErrorAt___at___private_Lean_Elab_SyntheticMVars_0__Lean_Elab_Term_throwStuckAtUniverseCnstr___spec__12(ptr noundef %10, ptr noundef nonnull %25, ptr noundef %1, ptr noundef %2, ptr noundef %3, ptr noundef %4, ptr noundef %5, ptr noundef %6, ptr noundef %7) #6
  br label %66

32:                                               ; preds = %8
  %33 = ptrtoint ptr %12 to i64
  %34 = and i64 %33, 1
  %.not = icmp eq i64 %34, 0
  br i1 %.not, label %35, label %lean_dec.exit33

35:                                               ; preds = %32
  %36 = load i32, ptr %12, align 4, !tbaa !8
  %37 = icmp sgt i32 %36, 1
  br i1 %37, label %38, label %40, !prof !11

38:                                               ; preds = %35
  %39 = add nsw i32 %36, -1
  store i32 %39, ptr %12, align 4, !tbaa !8
  br label %lean_dec.exit33

40:                                               ; preds = %35
  %.not.i = icmp eq i32 %36, 0
  br i1 %.not.i, label %lean_dec.exit33, label %41

41:                                               ; preds = %40
  tail call void @lean_dec_ref_cold(ptr noundef nonnull %12) #6
  br label %lean_dec.exit33

lean_dec.exit33:                                  ; preds = %41, %40, %38, %32
  %42 = ptrtoint ptr %5 to i64
  %43 = and i64 %42, 1
  %.not40 = icmp eq i64 %43, 0
  br i1 %.not40, label %44, label %lean_dec.exit32

44:                                               ; preds = %lean_dec.exit33
  %45 = load i32, ptr %5, align 4, !tbaa !8
  %46 = icmp sgt i32 %45, 1
  br i1 %46, label %47, label %49, !prof !11

47:                                               ; preds = %44
  %48 = add nsw i32 %45, -1
  store i32 %48, ptr %5, align 4, !tbaa !8
  br label %lean_dec.exit32

49:                                               ; preds = %44
  %.not.i34 = icmp eq i32 %45, 0
  br i1 %.not.i34, label %lean_dec.exit32, label %50

50:                                               ; preds = %49
  tail call void @lean_dec_ref_cold(ptr noundef nonnull %5) #6
  br label %lean_dec.exit32

lean_dec.exit32:                                  ; preds = %50, %49, %47, %lean_dec.exit33
  %51 = ptrtoint ptr %1 to i64
  %52 = and i64 %51, 1
  %.not41 = icmp eq i64 %52, 0
  br i1 %.not41, label %53, label %lean_dec.exit

53:                                               ; preds = %lean_dec.exit32
  %54 = load i32, ptr %1, align 4, !tbaa !8
  %55 = icmp sgt i32 %54, 1
  br i1 %55, label %56, label %58, !prof !11

56:                                               ; preds = %53
  %57 = add nsw i32 %54, -1
  store i32 %57, ptr %1, align 4, !tbaa !8
  br label %lean_dec.exit

58:                                               ; preds = %53
  %.not.i36 = icmp eq i32 %54, 0
  br i1 %.not.i36, label %lean_dec.exit, label %59

59:                                               ; preds = %58
  tail call void @lean_dec_ref_cold(ptr noundef nonnull %1) #6
  br label %lean_dec.exit

lean_dec.exit:                                    ; preds = %59, %58, %56, %lean_dec.exit32
  tail call void @lean_inc_heartbeat() #6
  %60 = tail call noalias ptr @mi_malloc_small(i64 noundef 24) #6
  %61 = icmp eq ptr %60, null
  br i1 %61, label %62, label %lean_alloc_ctor.exit39

62:                                               ; preds = %lean_dec.exit
  tail call void @lean_internal_panic_out_of_memory() #7
  unreachable

lean_alloc_ctor.exit39:                           ; preds = %lean_dec.exit
  %63 = getelementptr inbounds nuw i8, ptr %60, i64 4
  store i32 1, ptr %60, align 4, !tbaa !8
  store i32 131096, ptr %63, align 4
  %64 = getelementptr inbounds nuw i8, ptr %60, i64 8
  store ptr inttoptr (i64 1 to ptr), ptr %64, align 8, !tbaa !4
  %65 = getelementptr inbounds nuw i8, ptr %60, i64 16
  store ptr %7, ptr %65, align 8, !tbaa !4
  br label %66

66:                                               ; preds = %lean_alloc_ctor.exit39, %lean_alloc_ctor.exit38
  %.0 = phi ptr [ %31, %lean_alloc_ctor.exit38 ], [ %60, %lean_alloc_ctor.exit39 ]
  ret ptr %.0
}